target datalayout = "e-m:e-p270:32:32-p271:32:32-p272:64:64-i64:64-i128:128-f80:128-n8:16:32:64-S128"
target triple = "x86_64-pc-linux-gnu"

%"struct.duckdb_libpgquery::PGValue" = type { i32, %"union.duckdb_libpgquery::PGValue::ValUnion" }
%"union.duckdb_libpgquery::PGValue::ValUnion" = type { i64 }

@.str.179 = private unnamed_addr constant [4 x i8] c"-%s\00", align 1

; Function Attrs: mustprogress uwtable
define internal void @_ZN17duckdb_libpgqueryL13doNegateFloatEPNS_7PGValueE(ptr noundef %0) #0 {
  %2 = alloca ptr, align 8
  %3 = alloca ptr, align 8
  store ptr %0, ptr %2, align 8, !tbaa !746
  call void @llvm.lifetime.start.p0(i64 8, ptr %3) #13
  %4 = load ptr, ptr %2, align 8, !tbaa !746
  %5 = getelementptr inbounds nuw %"struct.duckdb_libpgquery::PGValue", ptr %4, i32 0, i32 1
  %6 = load ptr, ptr %5, align 8, !tbaa !22
  store ptr %6, ptr %3, align 8, !tbaa !470
  %7 = load ptr, ptr %3, align 8, !tbaa !470
  %8 = load i8, ptr %7, align 1, !tbaa !22
  %9 = sext i8 %8 to i32
  %10 = icmp eq i32 %9, 43
  br i1 %10, label %11, label %14

11:                                               ; preds = %1
  %12 = load ptr, ptr %3, align 8, !tbaa !470
  %13 = getelementptr inbounds nuw i8, ptr %12, i32 1
  store ptr %13, ptr %3, align 8, !tbaa !470
  br label %14

14:                                               ; preds = %11, %1
  %15 = load ptr, ptr %3, align 8, !tbaa !470
  %16 = load i8, ptr %15, align 1, !tbaa !22
  %17 = sext i8 %16 to i32
  %18 = icmp eq i32 %17, 45
  br i1 %18, label %19, label %24

19:                                               ; preds = %14
  %20 = load ptr, ptr %3, align 8, !tbaa !470
  %21 = getelementptr inbounds i8, ptr %20, i64 1
  %22 = load ptr, ptr %2, align 8, !tbaa !746
  %23 = getelementptr inbounds nuw %"struct.duckdb_libpgquery::PGValue", ptr %22, i32 0, i32 1
  store ptr %21, ptr %23, align 8, !tbaa !22
  br label %29

24:                                               ; preds = %14
  %25 = load ptr, ptr %3, align 8, !tbaa !470
  %26 = call noundef ptr (ptr, ...) @_ZN17duckdb_libpgquery8psprintfEPKcz(ptr noundef @.str.179, ptr noundef %25)
  %27 = load ptr, ptr %2, align 8, !tbaa !746
  %28 = getelementptr inbounds nuw %"struct.duckdb_libpgquery::PGValue", ptr %27, i32 0, i32 1
  store ptr %26, ptr %28, align 8, !tbaa !22
  br label %29

29:                                               ; preds = %24, %19
  call void @llvm.lifetime.end.p0(i64 8, ptr %3) #13
  ret void
}