; Function Attrs: mustprogress uwtable
define internal fastcc void @_ZN17duckdb_libpgqueryL13doNegateFloatEPNS_7PGValueE(ptr noundef captures(none) %0) unnamed_addr #0 {
  %2 = getelementptr inbounds nuw i8, ptr %0, i64 8
  %3 = load ptr, ptr %2, align 8, !tbaa !9
  %4 = load i8, ptr %3, align 1, !tbaa !9
  %5 = icmp eq i8 %4, 43
  %spec.select.idx = zext i1 %5 to i64
  %spec.select = getelementptr inbounds nuw i8, ptr %3, i64 %spec.select.idx
  %6 = load i8, ptr %spec.select, align 1, !tbaa !9
  %7 = icmp eq i8 %6, 45
  br i1 %7, label %8, label %10

8:                                                ; preds = %1
  %9 = getelementptr inbounds nuw i8, ptr %spec.select, i64 1
  br label %12

10:                                               ; preds = %1
  %11 = tail call noundef ptr (ptr, ...) @_ZN17duckdb_libpgquery8psprintfEPKcz(ptr noundef nonnull @.str.179, ptr noundef nonnull %spec.select)
  br label %12

12:                                               ; preds = %10, %8
  %storemerge = phi ptr [ %11, %10 ], [ %9, %8 ]
  store ptr %storemerge, ptr %2, align 8, !tbaa !9
  ret void
}